target datalayout = "e-m:e-p270:32:32-p271:32:32-p272:64:64-i64:64-i128:128-f80:128-n8:16:32:64-S128"
target triple = "x86_64-pc-linux-gnu"

%struct.slurm_conf_t = type { i64, ptr, i16, ptr, ptr, ptr, ptr, ptr, i16, ptr, ptr, ptr, ptr, ptr, ptr, ptr, i16, ptr, ptr, ptr, ptr, i16, ptr, ptr, ptr, i64, ptr, ptr, ptr, ptr, i16, ptr, ptr, i16, i32, ptr, i32, ptr, i32, i32, ptr, ptr, i64, i64, ptr, i16, i16, ptr, i32, i32, ptr, i32, ptr, i32, i16, i16, i16, ptr, i16, i16, ptr, ptr, i32, i16, i16, ptr, i32, i16, ptr, ptr, ptr, ptr, i16, ptr, ptr, ptr, ptr, i32, ptr, ptr, ptr, ptr, i16, i16, ptr, i32, i32, i32, i16, i16, ptr, ptr, i16, ptr, ptr, i32, i32, i32, i32, i32, i64, i32, i32, i16, ptr, ptr, i32, ptr, ptr, ptr, i16, i32, ptr, ptr, i16, ptr, ptr, i32, i16, ptr, ptr, ptr, ptr, i32, i32, i16, i16, i32, ptr, i16, ptr, i32, i32, i32, i32, i32, i32, ptr, i16, ptr, ptr, i32, i16, ptr, i32, i16, i16, ptr, ptr, ptr, i16, ptr, ptr, ptr, ptr, i16, i16, ptr, i16, ptr, i16, ptr, i16, ptr, i16, ptr, ptr, ptr, ptr, i16, ptr, ptr, ptr, i32, ptr, i32, ptr, ptr, i16, ptr, ptr, i32, i16, ptr, ptr, i16, i16, ptr, i16, ptr, ptr, ptr, i32, ptr, i16, i16, ptr, ptr, ptr, ptr, ptr, ptr, ptr, ptr, i16, i32, i16, ptr, ptr, ptr, ptr, i32, ptr, ptr, ptr, i16, ptr, ptr, ptr, i16, ptr, i16, ptr, i16, i16, ptr }
%struct.slurmctld_resv = type { i16, ptr, i32, ptr, ptr, i32, ptr, ptr, i32, ptr, i32, ptr, i32, i64, i64, ptr, i64, ptr, ptr, i32, i32, ptr, ptr, i32, ptr, ptr, i32, ptr, ptr, ptr, i32, i32, i64, i64, i64, i64, ptr, ptr, ptr, i32, ptr }
%struct.node_record = type { ptr, ptr, i16, i64, i64, ptr, ptr, ptr, i16, ptr, i16, i16, i32, i32, i64, ptr, i16, i16, ptr, ptr, ptr, ptr, ptr, i64, i64, ptr, ptr, ptr, ptr, i32, ptr, ptr, i64, i64, i32, ptr, i64, ptr, i32, i16, ptr, ptr, i32, ptr, i32, i8, ptr, i32, i16, i16, ptr, i16, i64, i16, i64, ptr, i64, i32, i16, i64, i16, ptr, i16, i64, ptr, i64, i16, i32, i16, ptr, ptr, ptr, i16, i32, i16, i16, i32, ptr, i16, i32 }

@resv_list = dso_local global ptr null, align 8
@slurm_conf = external global %struct.slurm_conf_t, align 8
@.str.94 = private unnamed_addr constant [11 x i8] c"ResvProlog\00", align 1
@.str.95 = private unnamed_addr constant [11 x i8] c"ResvEpilog\00", align 1
@last_node_update = external global i64, align 8

; Function Attrs: nounwind uwtable
define internal i32 @_set_node_maint_mode(i1 noundef zeroext %0, ptr noundef %1) #0 {
  %3 = alloca i32, align 4
  %4 = alloca i8, align 1
  %5 = alloca ptr, align 8
  %6 = alloca i32, align 4
  %7 = alloca i32, align 4
  %8 = alloca ptr, align 8
  %9 = alloca i32, align 4
  %10 = alloca ptr, align 8
  %11 = alloca ptr, align 8
  %12 = alloca i64, align 8
  %13 = alloca i32, align 4
  %14 = zext i1 %0 to i8
  store i8 %14, ptr %4, align 1
  store ptr %1, ptr %5, align 8
  call void @llvm.lifetime.start.p0(i64 4, ptr %6) #10
  call void @llvm.lifetime.start.p0(i64 4, ptr %7) #10
  store i32 0, ptr %7, align 4
  call void @llvm.lifetime.start.p0(i64 8, ptr %8) #10
  call void @llvm.lifetime.start.p0(i64 4, ptr %9) #10
  call void @llvm.lifetime.start.p0(i64 8, ptr %10) #10
  call void @llvm.lifetime.start.p0(i64 8, ptr %11) #10
  call void @llvm.lifetime.start.p0(i64 8, ptr %12) #10
  %15 = call i64 @time(ptr noundef null) #10
  store i64 %15, ptr %12, align 8
  %16 = load ptr, ptr @resv_list, align 8
  %17 = icmp ne ptr %16, null
  br i1 %17, label %20, label %18

18:                                               ; preds = %2
  %19 = load i32, ptr %7, align 4
  store i32 %19, ptr %3, align 4
  store i32 1, ptr %13, align 4
  br label %183

20:                                               ; preds = %2
  store i32 32, ptr %9, align 4
  %21 = load i8, ptr %4, align 1, !range !11, !noundef !12
  %22 = trunc i8 %21 to i1
  br i1 %22, label %23, label %28

23:                                               ; preds = %20
  %24 = load i32, ptr %9, align 4
  %25 = zext i32 %24 to i64
  %26 = or i64 %25, 32768
  %27 = trunc i64 %26 to i32
  store i32 %27, ptr %9, align 4
  br label %28

28:                                               ; preds = %23, %20
  store i32 0, ptr %6, align 4
  br label %29

29:                                               ; preds = %41, %28
  %30 = call ptr @next_node(ptr noundef %6)
  store ptr %30, ptr %8, align 8
  %31 = icmp ne ptr %30, null
  br i1 %31, label %32, label %44

32:                                               ; preds = %29
  %33 = load i32, ptr %9, align 4
  %34 = xor i32 %33, -1
  %35 = load ptr, ptr %8, align 8
  %36 = getelementptr inbounds nuw %struct.node_record, ptr %35, i32 0, i32 44
  %37 = load i32, ptr %36, align 8
  %38 = and i32 %37, %34
  store i32 %38, ptr %36, align 8
  %39 = load ptr, ptr %8, align 8
  %40 = getelementptr inbounds nuw %struct.node_record, ptr %39, i32 0, i32 61
  call void @slurm_xfree(ptr noundef %40)
  br label %41

41:                                               ; preds = %32
  %42 = load i32, ptr %6, align 4
  %43 = add nsw i32 %42, 1
  store i32 %43, ptr %6, align 4
  br label %29, !llvm.loop !46

44:                                               ; preds = %29
  %45 = load i8, ptr %4, align 1, !range !11, !noundef !12
  %46 = trunc i8 %45 to i1
  br i1 %46, label %93, label %47

47:                                               ; preds = %44
  %48 = load ptr, ptr @resv_list, align 8
  %49 = call ptr @list_iterator_create(ptr noundef %48)
  store ptr %49, ptr %10, align 8
  br label %50

50:                                               ; preds = %90, %47
  %51 = load ptr, ptr %10, align 8
  %52 = call ptr @list_next(ptr noundef %51)
  store ptr %52, ptr %11, align 8
  %53 = icmp ne ptr %52, null
  br i1 %53, label %54, label %91

54:                                               ; preds = %50
  %55 = load ptr, ptr %11, align 8
  %56 = getelementptr inbounds nuw %struct.slurmctld_resv, ptr %55, i32 0, i32 8
  %57 = load i32, ptr %56, align 8
  %58 = and i32 %57, 8
  %59 = icmp ne i32 %58, 0
  br i1 %59, label %60, label %90

60:                                               ; preds = %54
  %61 = load ptr, ptr %11, align 8
  %62 = getelementptr inbounds nuw %struct.slurmctld_resv, ptr %61, i32 0, i32 16
  %63 = load i64, ptr %62, align 8
  %64 = and i64 %63, 1
  %65 = icmp ne i64 %64, 0
  br i1 %65, label %66, label %90

66:                                               ; preds = %60
  %67 = load i64, ptr %12, align 8
  %68 = load ptr, ptr %11, align 8
  %69 = getelementptr inbounds nuw %struct.slurmctld_resv, ptr %68, i32 0, i32 32
  %70 = load i64, ptr %69, align 8
  %71 = icmp slt i64 %67, %70
  br i1 %71, label %78, label %72

72:                                               ; preds = %66
  %73 = load i64, ptr %12, align 8
  %74 = load ptr, ptr %11, align 8
  %75 = getelementptr inbounds nuw %struct.slurmctld_resv, ptr %74, i32 0, i32 13
  %76 = load i64, ptr %75, align 8
  %77 = icmp sge i64 %73, %76
  br i1 %77, label %78, label %90

78:                                               ; preds = %72, %66
  store i32 32768, ptr %9, align 4
  %79 = load ptr, ptr %11, align 8
  %80 = getelementptr inbounds nuw %struct.slurmctld_resv, ptr %79, i32 0, i32 8
  %81 = load i32, ptr %80, align 8
  %82 = and i32 %81, -9
  store i32 %82, ptr %80, align 8
  %83 = load ptr, ptr %11, align 8
  %84 = load i64, ptr %12, align 8
  %85 = load i32, ptr %9, align 4
  %86 = load i8, ptr %4, align 1, !range !11, !noundef !12
  %87 = trunc i8 %86 to i1
  %88 = load ptr, ptr %5, align 8
  call void @_set_nodes_flags(ptr noundef %83, i64 noundef %84, i32 noundef %85, i1 noundef zeroext %87, ptr noundef %88)
  %89 = load i64, ptr %12, align 8
  store i64 %89, ptr @last_node_update, align 8
  br label %90

90:                                               ; preds = %78, %72, %60, %54
  br label %50, !llvm.loop !47

91:                                               ; preds = %50
  %92 = load ptr, ptr %10, align 8
  call void @list_iterator_destroy(ptr noundef %92)
  br label %93

93:                                               ; preds = %91, %44
  %94 = load ptr, ptr @resv_list, align 8
  %95 = call ptr @list_iterator_create(ptr noundef %94)
  store ptr %95, ptr %10, align 8
  br label %96

96:                                               ; preds = %179, %138, %93
  %97 = load ptr, ptr %10, align 8
  %98 = call ptr @list_next(ptr noundef %97)
  store ptr %98, ptr %11, align 8
  %99 = icmp ne ptr %98, null
  br i1 %99, label %100, label %180

100:                                              ; preds = %96
  %101 = load i64, ptr %12, align 8
  %102 = load ptr, ptr %11, align 8
  %103 = getelementptr inbounds nuw %struct.slurmctld_resv, ptr %102, i32 0, i32 32
  %104 = load i64, ptr %103, align 8
  %105 = icmp sge i64 %101, %104
  br i1 %105, label %106, label %135

106:                                              ; preds = %100
  %107 = load i64, ptr %12, align 8
  %108 = load ptr, ptr %11, align 8
  %109 = getelementptr inbounds nuw %struct.slurmctld_resv, ptr %108, i32 0, i32 13
  %110 = load i64, ptr %109, align 8
  %111 = icmp slt i64 %107, %110
  br i1 %111, label %112, label %135

112:                                              ; preds = %106
  store i32 32, ptr %9, align 4
  %113 = load ptr, ptr %11, align 8
  %114 = getelementptr inbounds nuw %struct.slurmctld_resv, ptr %113, i32 0, i32 16
  %115 = load i64, ptr %114, align 8
  %116 = and i64 %115, 1
  %117 = icmp ne i64 %116, 0
  br i1 %117, label %118, label %123

118:                                              ; preds = %112
  %119 = load i32, ptr %9, align 4
  %120 = zext i32 %119 to i64
  %121 = or i64 %120, 32768
  %122 = trunc i64 %121 to i32
  store i32 %122, ptr %9, align 4
  br label %123

123:                                              ; preds = %118, %112
  %124 = load ptr, ptr %11, align 8
  %125 = getelementptr inbounds nuw %struct.slurmctld_resv, ptr %124, i32 0, i32 8
  %126 = load i32, ptr %125, align 8
  %127 = or i32 %126, 8
  store i32 %127, ptr %125, align 8
  %128 = load ptr, ptr %11, align 8
  %129 = load i64, ptr %12, align 8
  %130 = load i32, ptr %9, align 4
  %131 = load i8, ptr %4, align 1, !range !11, !noundef !12
  %132 = trunc i8 %131 to i1
  %133 = load ptr, ptr %5, align 8
  call void @_set_nodes_flags(ptr noundef %128, i64 noundef %129, i32 noundef %130, i1 noundef zeroext %132, ptr noundef %133)
  %134 = load i64, ptr %12, align 8
  store i64 %134, ptr @last_node_update, align 8
  br label %135

135:                                              ; preds = %123, %106, %100
  %136 = load i8, ptr %4, align 1, !range !11, !noundef !12
  %137 = trunc i8 %136 to i1
  br i1 %137, label %138, label %139

138:                                              ; preds = %135
  br label %96, !llvm.loop !48

139:                                              ; preds = %135
  %140 = load ptr, ptr %11, align 8
  %141 = getelementptr inbounds nuw %struct.slurmctld_resv, ptr %140, i32 0, i32 32
  %142 = load i64, ptr %141, align 8
  %143 = load i64, ptr %12, align 8
  %144 = icmp sle i64 %142, %143
  br i1 %144, label %145, label %160

145:                                              ; preds = %139
  %146 = load ptr, ptr %11, align 8
  %147 = getelementptr inbounds nuw %struct.slurmctld_resv, ptr %146, i32 0, i32 8
  %148 = load i32, ptr %147, align 8
  %149 = and i32 %148, 32
  %150 = icmp ne i32 %149, 0
  br i1 %150, label %160, label %151

151:                                              ; preds = %145
  %152 = load i32, ptr %7, align 4
  %153 = add nsw i32 %152, 1
  store i32 %153, ptr %7, align 4
  %154 = load ptr, ptr %11, align 8
  %155 = getelementptr inbounds nuw %struct.slurmctld_resv, ptr %154, i32 0, i32 8
  %156 = load i32, ptr %155, align 8
  %157 = or i32 %156, 32
  store i32 %157, ptr %155, align 8
  %158 = load ptr, ptr getelementptr inbounds nuw (%struct.slurm_conf_t, ptr @slurm_conf, i32 0, i32 159), align 8
  %159 = load ptr, ptr %11, align 8
  call void @_run_script(ptr noundef %158, ptr noundef %159, ptr noundef @.str.94)
  br label %160

160:                                              ; preds = %151, %145, %139
  %161 = load ptr, ptr %11, align 8
  %162 = getelementptr inbounds nuw %struct.slurmctld_resv, ptr %161, i32 0, i32 13
  %163 = load i64, ptr %162, align 8
  %164 = load i64, ptr %12, align 8
  %165 = icmp sle i64 %163, %164
  br i1 %165, label %166, label %179

166:                                              ; preds = %160
  %167 = load ptr, ptr %11, align 8
  %168 = getelementptr inbounds nuw %struct.slurmctld_resv, ptr %167, i32 0, i32 8
  %169 = load i32, ptr %168, align 8
  %170 = and i32 %169, 16
  %171 = icmp ne i32 %170, 0
  br i1 %171, label %179, label %172

172:                                              ; preds = %166
  %173 = load ptr, ptr %11, align 8
  %174 = getelementptr inbounds nuw %struct.slurmctld_resv, ptr %173, i32 0, i32 8
  %175 = load i32, ptr %174, align 8
  %176 = or i32 %175, 16
  store i32 %176, ptr %174, align 8
  %177 = load ptr, ptr getelementptr inbounds nuw (%struct.slurm_conf_t, ptr @slurm_conf, i32 0, i32 157), align 8
  %178 = load ptr, ptr %11, align 8
  call void @_run_script(ptr noundef %177, ptr noundef %178, ptr noundef @.str.95)
  br label %179

179:                                              ; preds = %172, %166, %160
  br label %96, !llvm.loop !48

180:                                              ; preds = %96
  %181 = load ptr, ptr %10, align 8
  call void @list_iterator_destroy(ptr noundef %181)
  %182 = load i32, ptr %7, align 4
  store i32 %182, ptr %3, align 4
  store i32 1, ptr %13, align 4
  br label %183

183:                                              ; preds = %180, %18
  call void @llvm.lifetime.end.p0(i64 8, ptr %12) #10
  call void @llvm.lifetime.end.p0(i64 8, ptr %11) #10
  call void @llvm.lifetime.end.p0(i64 8, ptr %10) #10
  call void @llvm.lifetime.end.p0(i64 4, ptr %9) #10
  call void @llvm.lifetime.end.p0(i64 8, ptr %8) #10
  call void @llvm.lifetime.end.p0(i64 4, ptr %7) #10
  call void @llvm.lifetime.end.p0(i64 4, ptr %6) #10
  %184 = load i32, ptr %3, align 4
  ret i32 %184
}