; Function Attrs: nounwind uwtable
define internal fastcc i32 @_set_node_maint_mode(i1 noundef zeroext %0, ptr noundef %1) unnamed_addr #0 {
  %3 = alloca i32, align 4
  call void @llvm.lifetime.start.p0(i64 4, ptr nonnull %3) #19
  %4 = tail call i64 @time(ptr noundef null) #19
  %5 = load ptr, ptr @resv_list, align 8
  %.not = icmp eq ptr %5, null
  br i1 %.not, label %94, label %6

6:                                                ; preds = %2
  %spec.select = select i1 %0, i32 -32801, i32 -33
  store i32 0, ptr %3, align 4
  %7 = call ptr @next_node(ptr noundef nonnull %3) #19
  %.not5873 = icmp eq ptr %7, null
  br i1 %.not5873, label %._crit_edge, label %.lr.ph

.lr.ph:                                           ; preds = %6, %.lr.ph
  %8 = phi ptr [ %15, %.lr.ph ], [ %7, %6 ]
  %9 = getelementptr inbounds nuw i8, ptr %8, i64 320
  %10 = load i32, ptr %9, align 8
  %11 = and i32 %10, %spec.select
  store i32 %11, ptr %9, align 8
  %12 = getelementptr inbounds nuw i8, ptr %8, i64 424
  call void @slurm_xfree(ptr noundef nonnull %12) #19
  %13 = load i32, ptr %3, align 4
  %14 = add nsw i32 %13, 1
  store i32 %14, ptr %3, align 4
  %15 = call ptr @next_node(ptr noundef nonnull %3) #19
  %.not58 = icmp eq ptr %15, null
  br i1 %.not58, label %._crit_edge, label %.lr.ph, !llvm.loop !49

._crit_edge:                                      ; preds = %.lr.ph, %6
  %16 = load ptr, ptr @resv_list, align 8
  %17 = call ptr @list_iterator_create(ptr noundef %16) #19
  %18 = call ptr @list_next(ptr noundef %17) #19
  %.not63.us88 = icmp eq ptr %18, null
  br i1 %0, label %.outer.split.us, label %19

19:                                               ; preds = %._crit_edge
  br i1 %.not63.us88, label %.loopexit, label %.lr.ph76

.lr.ph76:                                         ; preds = %19, %37
  %20 = phi ptr [ %38, %37 ], [ %18, %19 ]
  %21 = getelementptr inbounds nuw i8, ptr %20, i64 64
  %22 = load i32, ptr %21, align 8
  %23 = and i32 %22, 8
  %.not60 = icmp eq i32 %23, 0
  br i1 %.not60, label %37, label %24

24:                                               ; preds = %.lr.ph76
  %25 = getelementptr inbounds nuw i8, ptr %20, i64 128
  %26 = load i64, ptr %25, align 8
  %27 = and i64 %26, 1
  %.not61 = icmp eq i64 %27, 0
  br i1 %.not61, label %37, label %28

28:                                               ; preds = %24
  %29 = getelementptr inbounds nuw i8, ptr %20, i64 240
  %30 = load i64, ptr %29, align 8
  %31 = icmp slt i64 %4, %30
  br i1 %31, label %35, label %32

32:                                               ; preds = %28
  %33 = getelementptr inbounds nuw i8, ptr %20, i64 104
  %34 = load i64, ptr %33, align 8
  %.not62 = icmp slt i64 %4, %34
  br i1 %.not62, label %37, label %35

35:                                               ; preds = %32, %28
  %36 = and i32 %22, -9
  store i32 %36, ptr %21, align 8
  call fastcc void @_set_nodes_flags(ptr noundef %20, i32 noundef 32768, i1 noundef zeroext false, ptr noundef %1)
  store i64 %4, ptr @last_node_update, align 8
  br label %37

37:                                               ; preds = %35, %32, %24, %.lr.ph76
  %38 = call ptr @list_next(ptr noundef %17) #19
  %.not59 = icmp eq ptr %38, null
  br i1 %.not59, label %.loopexit, label %.lr.ph76, !llvm.loop !50

.loopexit:                                        ; preds = %37, %19
  call void @list_iterator_destroy(ptr noundef %17) #19
  %39 = load ptr, ptr @resv_list, align 8
  %40 = call ptr @list_iterator_create(ptr noundef %39) #19
  %41 = call ptr @list_next(ptr noundef %40) #19
  %.not6385 = icmp eq ptr %41, null
  br i1 %.not6385, label %.split.us, label %.lr.ph87

.outer.split.us:                                  ; preds = %._crit_edge
  br i1 %.not63.us88, label %.split.us, label %.lr.ph89

.lr.ph89:                                         ; preds = %.outer.split.us, %56
  %42 = phi ptr [ %57, %56 ], [ %18, %.outer.split.us ]
  %43 = getelementptr inbounds nuw i8, ptr %42, i64 240
  %44 = load i64, ptr %43, align 8
  %.not64.us = icmp slt i64 %4, %44
  br i1 %.not64.us, label %56, label %45

45:                                               ; preds = %.lr.ph89
  %46 = getelementptr inbounds nuw i8, ptr %42, i64 104
  %47 = load i64, ptr %46, align 8
  %48 = icmp slt i64 %4, %47
  br i1 %48, label %49, label %56

49:                                               ; preds = %45
  %50 = getelementptr inbounds nuw i8, ptr %42, i64 128
  %51 = load i64, ptr %50, align 8
  %52 = and i64 %51, 1
  %.not65.us = icmp eq i64 %52, 0
  %spec.select70.us = select i1 %.not65.us, i32 32, i32 32800
  %53 = getelementptr inbounds nuw i8, ptr %42, i64 64
  %54 = load i32, ptr %53, align 8
  %55 = or i32 %54, 8
  store i32 %55, ptr %53, align 8
  call fastcc void @_set_nodes_flags(ptr noundef %42, i32 noundef %spec.select70.us, i1 noundef zeroext true, ptr noundef %1)
  store i64 %4, ptr @last_node_update, align 8
  br label %56

56:                                               ; preds = %49, %45, %.lr.ph89
  %57 = call ptr @list_next(ptr noundef %17) #19
  %.not63.us = icmp eq ptr %57, null
  br i1 %.not63.us, label %.split.us, label %.lr.ph89

.lr.ph87:                                         ; preds = %.loopexit, %.outer
  %58 = phi ptr [ %92, %.outer ], [ %41, %.loopexit ]
  %.051.ph8086 = phi i32 [ %.152, %.outer ], [ 0, %.loopexit ]
  %59 = getelementptr inbounds nuw i8, ptr %58, i64 240
  %60 = load i64, ptr %59, align 8
  %.not64 = icmp slt i64 %4, %60
  br i1 %.not64, label %72, label %61

61:                                               ; preds = %.lr.ph87
  %62 = getelementptr inbounds nuw i8, ptr %58, i64 104
  %63 = load i64, ptr %62, align 8
  %64 = icmp slt i64 %4, %63
  br i1 %64, label %65, label %72

65:                                               ; preds = %61
  %66 = getelementptr inbounds nuw i8, ptr %58, i64 128
  %67 = load i64, ptr %66, align 8
  %68 = and i64 %67, 1
  %.not65 = icmp eq i64 %68, 0
  %spec.select70 = select i1 %.not65, i32 32, i32 32800
  %69 = getelementptr inbounds nuw i8, ptr %58, i64 64
  %70 = load i32, ptr %69, align 8
  %71 = or i32 %70, 8
  store i32 %71, ptr %69, align 8
  call fastcc void @_set_nodes_flags(ptr noundef %58, i32 noundef %spec.select70, i1 noundef zeroext false, ptr noundef %1)
  store i64 %4, ptr @last_node_update, align 8
  %.pre = load i64, ptr %59, align 8
  br label %72

72:                                               ; preds = %65, %61, %.lr.ph87
  %73 = phi i64 [ %.pre, %65 ], [ %60, %61 ], [ %60, %.lr.ph87 ]
  %.not66 = icmp sgt i64 %73, %4
  br i1 %.not66, label %82, label %74

74:                                               ; preds = %72
  %75 = getelementptr inbounds nuw i8, ptr %58, i64 64
  %76 = load i32, ptr %75, align 8
  %77 = and i32 %76, 32
  %.not67 = icmp eq i32 %77, 0
  br i1 %.not67, label %78, label %82

78:                                               ; preds = %74
  %79 = add nsw i32 %.051.ph8086, 1
  %80 = or disjoint i32 %76, 32
  store i32 %80, ptr %75, align 8
  %81 = load ptr, ptr getelementptr inbounds nuw (i8, ptr @slurm_conf, i64 1040), align 8
  call fastcc void @_run_script(ptr noundef %81, ptr noundef nonnull %58, ptr noundef nonnull @.str.94)
  br label %82

82:                                               ; preds = %78, %74, %72
  %.152 = phi i32 [ %.051.ph8086, %74 ], [ %79, %78 ], [ %.051.ph8086, %72 ]
  %83 = getelementptr inbounds nuw i8, ptr %58, i64 104
  %84 = load i64, ptr %83, align 8
  %.not68 = icmp sgt i64 %84, %4
  br i1 %.not68, label %.outer, label %85

85:                                               ; preds = %82
  %86 = getelementptr inbounds nuw i8, ptr %58, i64 64
  %87 = load i32, ptr %86, align 8
  %88 = and i32 %87, 16
  %.not69 = icmp eq i32 %88, 0
  br i1 %.not69, label %89, label %.outer

89:                                               ; preds = %85
  %90 = or disjoint i32 %87, 16
  store i32 %90, ptr %86, align 8
  %91 = load ptr, ptr getelementptr inbounds nuw (i8, ptr @slurm_conf, i64 1024), align 8
  call fastcc void @_run_script(ptr noundef %91, ptr noundef nonnull %58, ptr noundef nonnull @.str.95)
  br label %.outer

.outer:                                           ; preds = %89, %85, %82
  %92 = call ptr @list_next(ptr noundef %40) #19
  %.not63 = icmp eq ptr %92, null
  br i1 %.not63, label %.split.us, label %.lr.ph87

.split.us:                                        ; preds = %.outer, %56, %.loopexit, %.outer.split.us
  %93 = phi ptr [ %17, %.outer.split.us ], [ %40, %.loopexit ], [ %17, %56 ], [ %40, %.outer ]
  %.us-phi = phi i32 [ 0, %.outer.split.us ], [ 0, %.loopexit ], [ 0, %56 ], [ %.152, %.outer ]
  call void @list_iterator_destroy(ptr noundef %93) #19
  br label %94

94:                                               ; preds = %2, %.split.us
  %.0 = phi i32 [ %.us-phi, %.split.us ], [ 0, %2 ]
  call void @llvm.lifetime.end.p0(i64 4, ptr nonnull %3) #19
  ret i32 %.0
}